; Function Attrs: nounwind uwtable
define dso_local range(i32 -107, 1) i32 @uv_shutdown(ptr noundef %0, ptr noundef %1, ptr noundef %2) local_unnamed_addr #0 {
  %4 = getelementptr inbounds nuw i8, ptr %1, i64 88
  %5 = load i32, ptr %4, align 8
  %6 = and i32 %5, 33280
  %or.cond = icmp eq i32 %6, 32768
  br i1 %or.cond, label %7, label %27

7:                                                ; preds = %3
  %8 = getelementptr inbounds nuw i8, ptr %1, i64 128
  %9 = load ptr, ptr %8, align 8
  %.not17 = icmp eq ptr %9, null
  %10 = and i32 %5, 3
  %.not18 = icmp eq i32 %10, 0
  %or.cond20 = and i1 %.not18, %.not17
  br i1 %or.cond20, label %11, label %27

11:                                               ; preds = %7
  %12 = getelementptr inbounds nuw i8, ptr %0, i64 8
  store i32 4, ptr %12, align 8
  %13 = getelementptr inbounds nuw i8, ptr %1, i64 8
  %14 = load ptr, ptr %13, align 8
  %15 = getelementptr inbounds nuw i8, ptr %14, i64 32
  %16 = load i32, ptr %15, align 8
  %17 = add i32 %16, 1
  store i32 %17, ptr %15, align 8
  %18 = getelementptr inbounds nuw i8, ptr %0, i64 64
  store ptr %1, ptr %18, align 8
  %19 = getelementptr inbounds nuw i8, ptr %0, i64 72
  store ptr %2, ptr %19, align 8
  store ptr %0, ptr %8, align 8
  %20 = load i32, ptr %4, align 8
  %21 = and i32 %20, -32769
  store i32 %21, ptr %4, align 8
  %22 = getelementptr inbounds nuw i8, ptr %1, i64 192
  %23 = load ptr, ptr %22, align 8
  %.not = icmp eq ptr %22, %23
  br i1 %.not, label %24, label %27

24:                                               ; preds = %11
  %25 = load ptr, ptr %13, align 8
  %26 = getelementptr inbounds nuw i8, ptr %1, i64 136
  tail call void @uv__io_feed(ptr noundef %25, ptr noundef nonnull %26) #12
  br label %27

27:                                               ; preds = %11, %24, %3, %7
  %.0 = phi i32 [ -107, %7 ], [ -107, %3 ], [ 0, %24 ], [ 0, %11 ]
  ret i32 %.0
}